; ModuleID = '29/1438.c'
source_filename = "29/1438.c"
target datalayout = "e-m:e-p270:32:32-p271:32:32-p272:64:64-i64:64-f80:128-n8:16:32:64-S128"
target triple = "x86_64-pc-linux-gnu"

@.str = private unnamed_addr constant [3 x i8] c"%d\00", align 1
@.str.1 = private unnamed_addr constant [6 x i8] c"%.3lf\00", align 1
@.str.2 = private unnamed_addr constant [7 x i8] c"%.3lf\0A\00", align 1

; Function Attrs: noinline nounwind uwtable
define dso_local i32 @main() #0 {
  %1 = alloca i32, align 4
  %2 = alloca i32, align 4
  %3 = alloca i32, align 4
  %4 = alloca i32, align 4
  %5 = alloca i32, align 4
  %6 = alloca i32, align 4
  %7 = alloca [100 x double], align 16
  %8 = alloca double, align 8
  %9 = alloca double, align 8
  %10 = alloca double, align 8
  store i32 0, i32* %1, align 4
  %11 = call i32 (i8*, ...) @__isoc99_scanf(i8* getelementptr inbounds ([3 x i8], [3 x i8]* @.str, i64 0, i64 0), i32* %3)
  store i32 0, i32* %4, align 4
  br label %12

12:                                               ; preds = %46, %0
  %13 = load i32, i32* %4, align 4
  %14 = load i32, i32* %3, align 4
  %15 = icmp slt i32 %13, %14
  br i1 %15, label %16, label %49

16:                                               ; preds = %12
  store double 2.000000e+00, double* %8, align 8
  store double 1.000000e+00, double* %9, align 8
  %17 = load i32, i32* %4, align 4
  %18 = sext i32 %17 to i64
  %19 = getelementptr inbounds [100 x double], [100 x double]* %7, i64 0, i64 %18
  store double 0.000000e+00, double* %19, align 8
  %20 = call i32 (i8*, ...) @__isoc99_scanf(i8* getelementptr inbounds ([3 x i8], [3 x i8]* @.str, i64 0, i64 0), i32* %2)
  store i32 1, i32* %5, align 4
  br label %21

21:                                               ; preds = %42, %16
  %22 = load i32, i32* %5, align 4
  %23 = load i32, i32* %2, align 4
  %24 = icmp sle i32 %22, %23
  br i1 %24, label %25, label %45

25:                                               ; preds = %21
  %26 = load double, double* %8, align 8
  %27 = load double, double* %9, align 8
  %28 = fdiv double %26, %27
  store double %28, double* %10, align 8
  %29 = load double, double* %10, align 8
  %30 = load i32, i32* %4, align 4
  %31 = sext i32 %30 to i64
  %32 = getelementptr inbounds [100 x double], [100 x double]* %7, i64 0, i64 %31
  %33 = load double, double* %32, align 8
  %34 = fadd double %33, %29
  store double %34, double* %32, align 8
  %35 = load double, double* %8, align 8
  %36 = fptosi double %35 to i32
  store i32 %36, i32* %6, align 4
  %37 = load double, double* %8, align 8
  %38 = load double, double* %9, align 8
  %39 = fadd double %37, %38
  store double %39, double* %8, align 8
  %40 = load i32, i32* %6, align 4
  %41 = sitofp i32 %40 to double
  store double %41, double* %9, align 8
  br label %42

42:                                               ; preds = %25
  %43 = load i32, i32* %5, align 4
  %44 = add nsw i32 %43, 1
  store i32 %44, i32* %5, align 4
  br label %21

45:                                               ; preds = %21
  br label %46

46:                                               ; preds = %45
  %47 = load i32, i32* %4, align 4
  %48 = add nsw i32 %47, 1
  store i32 %48, i32* %4, align 4
  br label %12

49:                                               ; preds = %12
  store i32 0, i32* %4, align 4
  br label %50

50:                                               ; preds = %72, %49
  %51 = load i32, i32* %4, align 4
  %52 = load i32, i32* %3, align 4
  %53 = icmp slt i32 %51, %52
  br i1 %53, label %54, label %75

54:                                               ; preds = %50
  %55 = load i32, i32* %4, align 4
  %56 = load i32, i32* %3, align 4
  %57 = sub nsw i32 %56, 1
  %58 = icmp eq i32 %55, %57
  br i1 %58, label %59, label %65

59:                                               ; preds = %54
  %60 = load i32, i32* %4, align 4
  %61 = sext i32 %60 to i64
  %62 = getelementptr inbounds [100 x double], [100 x double]* %7, i64 0, i64 %61
  %63 = load double, double* %62, align 8
  %64 = call i32 (i8*, ...) @printf(i8* getelementptr inbounds ([6 x i8], [6 x i8]* @.str.1, i64 0, i64 0), double %63)
  br label %71

65:                                               ; preds = %54
  %66 = load i32, i32* %4, align 4
  %67 = sext i32 %66 to i64
  %68 = getelementptr inbounds [100 x double], [100 x double]* %7, i64 0, i64 %67
  %69 = load double, double* %68, align 8
  %70 = call i32 (i8*, ...) @printf(i8* getelementptr inbounds ([7 x i8], [7 x i8]* @.str.2, i64 0, i64 0), double %69)
  br label %71

71:                                               ; preds = %65, %59
  br label %72

72:                                               ; preds = %71
  %73 = load i32, i32* %4, align 4
  %74 = add nsw i32 %73, 1
  store i32 %74, i32* %4, align 4
  br label %50

75:                                               ; preds = %50
  ret i32 0
}

declare dso_local i32 @__isoc99_scanf(i8*, ...) #1

declare dso_local i32 @printf(i8*, ...) #1


!llvm.module.flags = !{!0}
!llvm.ident = !{!1}

!0 = !{i32 1, !"wchar_size", i32 4}
!1 = !{!"clang version 10.0.0-4ubuntu1 "}
